target datalayout = "e-m:e-p270:32:32-p271:32:32-p272:64:64-i64:64-i128:128-f80:128-n8:16:32:64-S128"
target triple = "x86_64-unknown-linux-gnu"

%class.btSliderConstraint = type { %class.btTypedConstraint, i8, i8, %class.btTransform, %class.btTransform, i8, float, float, float, float, float, float, float, float, float, float, float, float, float, float, float, float, float, float, float, float, float, float, float, float, float, float, float, float, i8, i8, i32, [3 x %class.btJacobianEntry], [3 x float], [3 x %class.btJacobianEntry], float, %class.btTransform, %class.btTransform, %class.btVector3, %class.btVector3, %class.btVector3, %class.btVector3, %class.btVector3, %class.btVector3, %class.btVector3, %class.btVector3, float, float, float, float, i8, float, float, float, i8, float, float, float }
%class.btTypedConstraint = type { ptr, %struct.btTypedObject, i32, %union.anon.0, float, i8, i8, i32, ptr, ptr, float, float, ptr }
%struct.btTypedObject = type { i32 }
%union.anon.0 = type { ptr }
%class.btJacobianEntry = type { %class.btVector3, %class.btVector3, %class.btVector3, %class.btVector3, %class.btVector3, float }
%class.btTransform = type { %class.btMatrix3x3, %class.btVector3 }
%class.btMatrix3x3 = type { [3 x %class.btVector3] }
%class.btVector3 = type { [4 x float] }

; Function Attrs: mustprogress nounwind uwtable
define linkonce_odr dso_local void @_ZN9btVector3C2ERKfS1_S1_(ptr noundef nonnull align 4 dereferenceable(16) %this, ptr noundef nonnull align 4 dereferenceable(4) %_x, ptr noundef nonnull align 4 dereferenceable(4) %_y, ptr noundef nonnull align 4 dereferenceable(4) %_z) unnamed_addr #1 comdat align 2 {
entry:
  %this.addr = alloca ptr, align 8
  %_x.addr = alloca ptr, align 8
  %_y.addr = alloca ptr, align 8
  %_z.addr = alloca ptr, align 8
  store ptr %this, ptr %this.addr, align 8
  store ptr %_x, ptr %_x.addr, align 8
  store ptr %_y, ptr %_y.addr, align 8
  store ptr %_z, ptr %_z.addr, align 8
  %this1 = load ptr, ptr %this.addr, align 8
  %0 = load ptr, ptr %_x.addr, align 8
  %1 = load float, ptr %0, align 4
  %m_floats = getelementptr inbounds %class.btVector3, ptr %this1, i32 0, i32 0
  %arrayidx = getelementptr inbounds [4 x float], ptr %m_floats, i64 0, i64 0
  store float %1, ptr %arrayidx, align 4
  %2 = load ptr, ptr %_y.addr, align 8
  %3 = load float, ptr %2, align 4
  %m_floats2 = getelementptr inbounds %class.btVector3, ptr %this1, i32 0, i32 0
  %arrayidx3 = getelementptr inbounds [4 x float], ptr %m_floats2, i64 0, i64 1
  store float %3, ptr %arrayidx3, align 4
  %4 = load ptr, ptr %_z.addr, align 8
  %5 = load float, ptr %4, align 4
  %m_floats4 = getelementptr inbounds %class.btVector3, ptr %this1, i32 0, i32 0
  %arrayidx5 = getelementptr inbounds [4 x float], ptr %m_floats4, i64 0, i64 2
  store float %5, ptr %arrayidx5, align 4
  %m_floats6 = getelementptr inbounds %class.btVector3, ptr %this1, i32 0, i32 0
  %arrayidx7 = getelementptr inbounds [4 x float], ptr %m_floats6, i64 0, i64 3
  store float 0.000000e+00, ptr %arrayidx7, align 4
  ret void
}

; Function Attrs: mustprogress nounwind uwtable
define linkonce_odr dso_local noundef ptr @_ZNK9btVector3cvPKfEv(ptr noundef nonnull align 4 dereferenceable(16) %this) #1 comdat align 2 {
entry:
  %this.addr = alloca ptr, align 8
  store ptr %this, ptr %this.addr, align 8
  %this1 = load ptr, ptr %this.addr, align 8
  %m_floats = getelementptr inbounds %class.btVector3, ptr %this1, i32 0, i32 0
  %arrayidx = getelementptr inbounds [4 x float], ptr %m_floats, i64 0, i64 0
  ret ptr %arrayidx
}

; Function Attrs: mustprogress nounwind uwtable
define linkonce_odr dso_local noundef float @_Z7btAtan2ff(float noundef %x, float noundef %y) #1 comdat {
entry:
  %x.addr = alloca float, align 4
  %y.addr = alloca float, align 4
  store float %x, ptr %x.addr, align 4
  store float %y, ptr %y.addr, align 4
  %0 = load float, ptr %x.addr, align 4
  %1 = load float, ptr %y.addr, align 4
  %call = call float @atan2f(float noundef %0, float noundef %1) #10
  ret float %call
}

; Function Attrs: mustprogress nounwind uwtable
define linkonce_odr dso_local noundef float @_ZNK9btVector33dotERKS_(ptr noundef nonnull align 4 dereferenceable(16) %this, ptr noundef nonnull align 4 dereferenceable(16) %v) #1 comdat align 2 {
entry:
  %this.addr = alloca ptr, align 8
  %v.addr = alloca ptr, align 8
  store ptr %this, ptr %this.addr, align 8
  store ptr %v, ptr %v.addr, align 8
  %this1 = load ptr, ptr %this.addr, align 8
  %m_floats = getelementptr inbounds %class.btVector3, ptr %this1, i32 0, i32 0
  %arrayidx = getelementptr inbounds [4 x float], ptr %m_floats, i64 0, i64 0
  %0 = load float, ptr %arrayidx, align 4
  %1 = load ptr, ptr %v.addr, align 8
  %m_floats2 = getelementptr inbounds %class.btVector3, ptr %1, i32 0, i32 0
  %arrayidx3 = getelementptr inbounds [4 x float], ptr %m_floats2, i64 0, i64 0
  %2 = load float, ptr %arrayidx3, align 4
  %m_floats4 = getelementptr inbounds %class.btVector3, ptr %this1, i32 0, i32 0
  %arrayidx5 = getelementptr inbounds [4 x float], ptr %m_floats4, i64 0, i64 1
  %3 = load float, ptr %arrayidx5, align 4
  %4 = load ptr, ptr %v.addr, align 8
  %m_floats6 = getelementptr inbounds %class.btVector3, ptr %4, i32 0, i32 0
  %arrayidx7 = getelementptr inbounds [4 x float], ptr %m_floats6, i64 0, i64 1
  %5 = load float, ptr %arrayidx7, align 4
  %mul8 = fmul float %3, %5
  %6 = call float @llvm.fmuladd.f32(float %0, float %2, float %mul8)
  %m_floats9 = getelementptr inbounds %class.btVector3, ptr %this1, i32 0, i32 0
  %arrayidx10 = getelementptr inbounds [4 x float], ptr %m_floats9, i64 0, i64 2
  %7 = load float, ptr %arrayidx10, align 4
  %8 = load ptr, ptr %v.addr, align 8
  %m_floats11 = getelementptr inbounds %class.btVector3, ptr %8, i32 0, i32 0
  %arrayidx12 = getelementptr inbounds [4 x float], ptr %m_floats11, i64 0, i64 2
  %9 = load float, ptr %arrayidx12, align 4
  %10 = call float @llvm.fmuladd.f32(float %7, float %9, float %6)
  ret float %10
}

; Function Attrs: mustprogress uwtable
define linkonce_odr dso_local { <2 x float>, <2 x float> } @_ZNK11btMatrix3x39getColumnEi(ptr noundef nonnull align 4 dereferenceable(48) %this, i32 noundef %i) #2 comdat align 2 {
entry:
  %retval = alloca %class.btVector3, align 4
  %this.addr = alloca ptr, align 8
  %i.addr = alloca i32, align 4
  store ptr %this, ptr %this.addr, align 8
  store i32 %i, ptr %i.addr, align 4
  %this1 = load ptr, ptr %this.addr, align 8
  %m_el = getelementptr inbounds %class.btMatrix3x3, ptr %this1, i32 0, i32 0
  %arrayidx = getelementptr inbounds [3 x %class.btVector3], ptr %m_el, i64 0, i64 0
  %call = call noundef ptr @_ZNK9btVector3cvPKfEv(ptr noundef nonnull align 4 dereferenceable(16) %arrayidx)
  %0 = load i32, ptr %i.addr, align 4
  %idxprom = sext i32 %0 to i64
  %arrayidx2 = getelementptr inbounds float, ptr %call, i64 %idxprom
  %m_el3 = getelementptr inbounds %class.btMatrix3x3, ptr %this1, i32 0, i32 0
  %arrayidx4 = getelementptr inbounds [3 x %class.btVector3], ptr %m_el3, i64 0, i64 1
  %call5 = call noundef ptr @_ZNK9btVector3cvPKfEv(ptr noundef nonnull align 4 dereferenceable(16) %arrayidx4)
  %1 = load i32, ptr %i.addr, align 4
  %idxprom6 = sext i32 %1 to i64
  %arrayidx7 = getelementptr inbounds float, ptr %call5, i64 %idxprom6
  %m_el8 = getelementptr inbounds %class.btMatrix3x3, ptr %this1, i32 0, i32 0
  %arrayidx9 = getelementptr inbounds [3 x %class.btVector3], ptr %m_el8, i64 0, i64 2
  %call10 = call noundef ptr @_ZNK9btVector3cvPKfEv(ptr noundef nonnull align 4 dereferenceable(16) %arrayidx9)
  %2 = load i32, ptr %i.addr, align 4
  %idxprom11 = sext i32 %2 to i64
  %arrayidx12 = getelementptr inbounds float, ptr %call10, i64 %idxprom11
  call void @_ZN9btVector3C2ERKfS1_S1_(ptr noundef nonnull align 4 dereferenceable(16) %retval, ptr noundef nonnull align 4 dereferenceable(4) %arrayidx2, ptr noundef nonnull align 4 dereferenceable(4) %arrayidx7, ptr noundef nonnull align 4 dereferenceable(4) %arrayidx12)
  %coerce.dive = getelementptr inbounds %class.btVector3, ptr %retval, i32 0, i32 0
  %3 = load { <2 x float>, <2 x float> }, ptr %coerce.dive, align 4
  ret { <2 x float>, <2 x float> } %3
}

; Function Attrs: mustprogress nounwind uwtable
define linkonce_odr dso_local noundef nonnull align 4 dereferenceable(48) ptr @_ZN11btTransform8getBasisEv(ptr noundef nonnull align 4 dereferenceable(64) %this) #1 comdat align 2 {
entry:
  %this.addr = alloca ptr, align 8
  store ptr %this, ptr %this.addr, align 8
  %this1 = load ptr, ptr %this.addr, align 8
  %m_basis = getelementptr inbounds %class.btTransform, ptr %this1, i32 0, i32 0
  ret ptr %m_basis
}

; Function Attrs: mustprogress uwtable
define dso_local void @_ZN18btSliderConstraint13testAngLimitsEv(ptr noundef nonnull align 8 dereferenceable(1152) %this) #3 align 2 {
entry:
  %this.addr = alloca ptr, align 8
  %axisA0 = alloca %class.btVector3, align 4
  %axisA1 = alloca %class.btVector3, align 4
  %axisB0 = alloca %class.btVector3, align 4
  %rot = alloca float, align 4
  store ptr %this, ptr %this.addr, align 8
  %this1 = load ptr, ptr %this.addr, align 8
  %m_angDepth = getelementptr inbounds %class.btSliderConstraint, ptr %this1, i32 0, i32 53
  store float 0.000000e+00, ptr %m_angDepth, align 8
  %m_solveAngLim = getelementptr inbounds %class.btSliderConstraint, ptr %this1, i32 0, i32 35
  store i8 0, ptr %m_solveAngLim, align 1
  %m_lowerAngLimit = getelementptr inbounds %class.btSliderConstraint, ptr %this1, i32 0, i32 8
  %0 = load float, ptr %m_lowerAngLimit, align 8
  %m_upperAngLimit = getelementptr inbounds %class.btSliderConstraint, ptr %this1, i32 0, i32 9
  %1 = load float, ptr %m_upperAngLimit, align 4
  %cmp = fcmp ole float %0, %1
  br i1 %cmp, label %if.then, label %if.end30

if.then:                                          ; preds = %entry
  %m_calculatedTransformA = getelementptr inbounds %class.btSliderConstraint, ptr %this1, i32 0, i32 41
  %call = call noundef nonnull align 4 dereferenceable(48) ptr @_ZN11btTransform8getBasisEv(ptr noundef nonnull align 4 dereferenceable(64) %m_calculatedTransformA)
  %call2 = call { <2 x float>, <2 x float> } @_ZNK11btMatrix3x39getColumnEi(ptr noundef nonnull align 4 dereferenceable(48) %call, i32 noundef 1)
  %coerce.dive = getelementptr inbounds %class.btVector3, ptr %axisA0, i32 0, i32 0
  %2 = getelementptr inbounds { <2 x float>, <2 x float> }, ptr %coerce.dive, i32 0, i32 0
  %3 = extractvalue { <2 x float>, <2 x float> } %call2, 0
  store <2 x float> %3, ptr %2, align 4
  %4 = getelementptr inbounds { <2 x float>, <2 x float> }, ptr %coerce.dive, i32 0, i32 1
  %5 = extractvalue { <2 x float>, <2 x float> } %call2, 1
  store <2 x float> %5, ptr %4, align 4
  %m_calculatedTransformA3 = getelementptr inbounds %class.btSliderConstraint, ptr %this1, i32 0, i32 41
  %call4 = call noundef nonnull align 4 dereferenceable(48) ptr @_ZN11btTransform8getBasisEv(ptr noundef nonnull align 4 dereferenceable(64) %m_calculatedTransformA3)
  %call5 = call { <2 x float>, <2 x float> } @_ZNK11btMatrix3x39getColumnEi(ptr noundef nonnull align 4 dereferenceable(48) %call4, i32 noundef 2)
  %coerce.dive6 = getelementptr inbounds %class.btVector3, ptr %axisA1, i32 0, i32 0
  %6 = getelementptr inbounds { <2 x float>, <2 x float> }, ptr %coerce.dive6, i32 0, i32 0
  %7 = extractvalue { <2 x float>, <2 x float> } %call5, 0
  store <2 x float> %7, ptr %6, align 4
  %8 = getelementptr inbounds { <2 x float>, <2 x float> }, ptr %coerce.dive6, i32 0, i32 1
  %9 = extractvalue { <2 x float>, <2 x float> } %call5, 1
  store <2 x float> %9, ptr %8, align 4
  %m_calculatedTransformB = getelementptr inbounds %class.btSliderConstraint, ptr %this1, i32 0, i32 42
  %call7 = call noundef nonnull align 4 dereferenceable(48) ptr @_ZN11btTransform8getBasisEv(ptr noundef nonnull align 4 dereferenceable(64) %m_calculatedTransformB)
  %call8 = call { <2 x float>, <2 x float> } @_ZNK11btMatrix3x39getColumnEi(ptr noundef nonnull align 4 dereferenceable(48) %call7, i32 noundef 1)
  %coerce.dive9 = getelementptr inbounds %class.btVector3, ptr %axisB0, i32 0, i32 0
  %10 = getelementptr inbounds { <2 x float>, <2 x float> }, ptr %coerce.dive9, i32 0, i32 0
  %11 = extractvalue { <2 x float>, <2 x float> } %call8, 0
  store <2 x float> %11, ptr %10, align 4
  %12 = getelementptr inbounds { <2 x float>, <2 x float> }, ptr %coerce.dive9, i32 0, i32 1
  %13 = extractvalue { <2 x float>, <2 x float> } %call8, 1
  store <2 x float> %13, ptr %12, align 4
  %call10 = call noundef float @_ZNK9btVector33dotERKS_(ptr noundef nonnull align 4 dereferenceable(16) %axisB0, ptr noundef nonnull align 4 dereferenceable(16) %axisA1)
  %call11 = call noundef float @_ZNK9btVector33dotERKS_(ptr noundef nonnull align 4 dereferenceable(16) %axisB0, ptr noundef nonnull align 4 dereferenceable(16) %axisA0)
  %call12 = call noundef float @_Z7btAtan2ff(float noundef %call10, float noundef %call11)
  store float %call12, ptr %rot, align 4
  %14 = load float, ptr %rot, align 4
  %m_lowerAngLimit13 = getelementptr inbounds %class.btSliderConstraint, ptr %this1, i32 0, i32 8
  %15 = load float, ptr %m_lowerAngLimit13, align 8
  %m_upperAngLimit14 = getelementptr inbounds %class.btSliderConstraint, ptr %this1, i32 0, i32 9
  %16 = load float, ptr %m_upperAngLimit14, align 4
  %call15 = call noundef float @_Z21btAdjustAngleToLimitsfff(float noundef %14, float noundef %15, float noundef %16)
  store float %call15, ptr %rot, align 4
  %17 = load float, ptr %rot, align 4
  %m_angPos = getelementptr inbounds %class.btSliderConstraint, ptr %this1, i32 0, i32 52
  store float %17, ptr %m_angPos, align 4
  %18 = load float, ptr %rot, align 4
  %m_lowerAngLimit16 = getelementptr inbounds %class.btSliderConstraint, ptr %this1, i32 0, i32 8
  %19 = load float, ptr %m_lowerAngLimit16, align 8
  %cmp17 = fcmp olt float %18, %19
  br i1 %cmp17, label %if.then18, label %if.else

if.then18:                                        ; preds = %if.then
  %20 = load float, ptr %rot, align 4
  %m_lowerAngLimit19 = getelementptr inbounds %class.btSliderConstraint, ptr %this1, i32 0, i32 8
  %21 = load float, ptr %m_lowerAngLimit19, align 8
  %sub = fsub float %20, %21
  %m_angDepth20 = getelementptr inbounds %class.btSliderConstraint, ptr %this1, i32 0, i32 53
  store float %sub, ptr %m_angDepth20, align 8
  %m_solveAngLim21 = getelementptr inbounds %class.btSliderConstraint, ptr %this1, i32 0, i32 35
  store i8 1, ptr %m_solveAngLim21, align 1
  br label %if.end29

if.else:                                          ; preds = %if.then
  %22 = load float, ptr %rot, align 4
  %m_upperAngLimit22 = getelementptr inbounds %class.btSliderConstraint, ptr %this1, i32 0, i32 9
  %23 = load float, ptr %m_upperAngLimit22, align 4
  %cmp23 = fcmp ogt float %22, %23
  br i1 %cmp23, label %if.then24, label %if.end

if.then24:                                        ; preds = %if.else
  %24 = load float, ptr %rot, align 4
  %m_upperAngLimit25 = getelementptr inbounds %class.btSliderConstraint, ptr %this1, i32 0, i32 9
  %25 = load float, ptr %m_upperAngLimit25, align 4
  %sub26 = fsub float %24, %25
  %m_angDepth27 = getelementptr inbounds %class.btSliderConstraint, ptr %this1, i32 0, i32 53
  store float %sub26, ptr %m_angDepth27, align 8
  %m_solveAngLim28 = getelementptr inbounds %class.btSliderConstraint, ptr %this1, i32 0, i32 35
  store i8 1, ptr %m_solveAngLim28, align 1
  br label %if.end

if.end:                                           ; preds = %if.then24, %if.else
  br label %if.end29

if.end29:                                         ; preds = %if.end, %if.then18
  br label %if.end30

if.end30:                                         ; preds = %if.end29, %entry
  ret void
}