; Function Attrs: mustprogress uwtable
define dso_local void @_ZN18btSliderConstraint13testAngLimitsEv(ptr nocapture noundef nonnull align 8 dereferenceable(1152) %this) local_unnamed_addr #5 align 2 {
entry:
  %m_angDepth = getelementptr inbounds i8, ptr %this, i64 1112
  store float 0.000000e+00, ptr %m_angDepth, align 8
  %m_solveAngLim = getelementptr inbounds i8, ptr %this, i64 321
  store i8 0, ptr %m_solveAngLim, align 1
  %m_lowerAngLimit = getelementptr inbounds i8, ptr %this, i64 216
  %0 = load float, ptr %m_lowerAngLimit, align 8
  %m_upperAngLimit = getelementptr inbounds i8, ptr %this, i64 220
  %1 = load float, ptr %m_upperAngLimit, align 4
  %cmp = fcmp ugt float %0, %1
  br i1 %cmp, label %if.end30, label %if.then

if.then:                                          ; preds = %entry
  %arrayidx2.i = getelementptr inbounds i8, ptr %this, i64 852
  %arrayidx7.i = getelementptr inbounds i8, ptr %this, i64 868
  %arrayidx12.i = getelementptr inbounds i8, ptr %this, i64 884
  %2 = load float, ptr %arrayidx2.i, align 4
  %3 = load float, ptr %arrayidx7.i, align 4
  %4 = load float, ptr %arrayidx12.i, align 4
  %arrayidx2.i7 = getelementptr inbounds i8, ptr %this, i64 856
  %arrayidx7.i9 = getelementptr inbounds i8, ptr %this, i64 872
  %arrayidx12.i11 = getelementptr inbounds i8, ptr %this, i64 888
  %5 = load float, ptr %arrayidx2.i7, align 8
  %6 = load float, ptr %arrayidx7.i9, align 8
  %7 = load float, ptr %arrayidx12.i11, align 8
  %arrayidx2.i17 = getelementptr inbounds i8, ptr %this, i64 916
  %arrayidx7.i19 = getelementptr inbounds i8, ptr %this, i64 932
  %arrayidx12.i21 = getelementptr inbounds i8, ptr %this, i64 948
  %8 = load float, ptr %arrayidx2.i17, align 4
  %9 = load float, ptr %arrayidx7.i19, align 4
  %10 = load float, ptr %arrayidx12.i21, align 4
  %mul8.i = fmul float %6, %9
  %11 = tail call float @llvm.fmuladd.f32(float %8, float %5, float %mul8.i)
  %12 = tail call noundef float @llvm.fmuladd.f32(float %10, float %7, float %11)
  %mul8.i31 = fmul float %3, %9
  %13 = tail call float @llvm.fmuladd.f32(float %8, float %2, float %mul8.i31)
  %14 = tail call noundef float @llvm.fmuladd.f32(float %10, float %4, float %13)
  %call.i = tail call noundef float @atan2f(float noundef %12, float noundef %14) #17
  %15 = load float, ptr %m_lowerAngLimit, align 8
  %16 = load float, ptr %m_upperAngLimit, align 4
  %call15 = tail call noundef float @_Z21btAdjustAngleToLimitsfff(float noundef %call.i, float noundef %15, float noundef %16)
  %m_angPos = getelementptr inbounds i8, ptr %this, i64 1108
  store float %call15, ptr %m_angPos, align 4
  %17 = load float, ptr %m_lowerAngLimit, align 8
  %cmp17 = fcmp olt float %call15, %17
  br i1 %cmp17, label %if.end30.sink.split, label %if.else

if.else:                                          ; preds = %if.then
  %18 = load float, ptr %m_upperAngLimit, align 4
  %cmp23 = fcmp ogt float %call15, %18
  br i1 %cmp23, label %if.end30.sink.split, label %if.end30

if.end30.sink.split:                              ; preds = %if.else, %if.then
  %.sink = phi float [ %17, %if.then ], [ %18, %if.else ]
  %sub = fsub float %call15, %.sink
  store float %sub, ptr %m_angDepth, align 8
  store i8 1, ptr %m_solveAngLim, align 1
  br label %if.end30

if.end30:                                         ; preds = %if.end30.sink.split, %if.else, %entry
  ret void
}